; Function Attrs: mustprogress uwtable
define dso_local void @_ZN11StatementIfC2ERKS_(ptr noundef nonnull align 8 dereferenceable(56) %0, ptr noundef nonnull readonly align 8 captures(none) dereferenceable(56) %1) unnamed_addr #3 align 2 {
  %3 = getelementptr inbounds nuw i8, ptr %1, i64 8
  %4 = load i32, ptr %3, align 8, !tbaa !70
  %5 = getelementptr inbounds nuw i8, ptr %1, i64 24
  %6 = load ptr, ptr %5, align 8, !tbaa !73
  tail call void @_ZN9StatementC2E14eStatementTypeP5Block(ptr noundef nonnull align 8 dereferenceable(32) %0, i32 noundef %4, ptr noundef %6)
  store ptr getelementptr inbounds nuw inrange(-16, 80) (i8, ptr @_ZTV11StatementIf, i64 16), ptr %0, align 8, !tbaa !49
  %7 = getelementptr inbounds nuw i8, ptr %0, i64 32
  %8 = getelementptr inbounds nuw i8, ptr %1, i64 32
  %9 = load ptr, ptr %8, align 8, !tbaa !74
  store ptr %9, ptr %7, align 8, !tbaa !68
  %10 = getelementptr inbounds nuw i8, ptr %0, i64 40
  %11 = getelementptr inbounds nuw i8, ptr %1, i64 40
  %12 = load ptr, ptr %11, align 8, !tbaa !76
  store ptr %12, ptr %10, align 8, !tbaa !69
  %13 = getelementptr inbounds nuw i8, ptr %0, i64 48
  %14 = getelementptr inbounds nuw i8, ptr %1, i64 48
  %15 = load ptr, ptr %14, align 8, !tbaa !77
  store ptr %15, ptr %13, align 8, !tbaa !69
  ret void
}